#include <math.h>
#include <stdio.h>
#include <stdlib.h>
#include <string.h>

void main()
{char a[50],b[50];int c[256]={0},d[256]={0};
 scanf("%s",a);
 scanf("%s",b);
 int i,j,k;
 for(i=0;a[i]!='\0';i++)
  {j=a[i];
   c[j]=c[j]+1;}
 for(i=0;b[i]!='\0';i++)
  {k=b[i];
   d[k]=d[k]+1;}
 for(i=0;i<256;i++)
  if(c[i]!=d[i])
    break;
 if(i<255)
  printf("NO");
 else
  printf("YES");
}