; ModuleID = '36/133.c'
source_filename = "36/133.c"
target datalayout = "e-m:e-p270:32:32-p271:32:32-p272:64:64-i64:64-f80:128-n8:16:32:64-S128"
target triple = "x86_64-pc-linux-gnu"

@.str = private unnamed_addr constant [3 x i8] c"%s\00", align 1
@.str.1 = private unnamed_addr constant [3 x i8] c"NO\00", align 1
@.str.2 = private unnamed_addr constant [4 x i8] c"YES\00", align 1

; Function Attrs: noinline nounwind uwtable
define dso_local void @main() #0 {
  %1 = alloca [50 x i8], align 16
  %2 = alloca [50 x i8], align 16
  %3 = alloca [256 x i32], align 16
  %4 = alloca [256 x i32], align 16
  %5 = alloca i32, align 4
  %6 = alloca i32, align 4
  %7 = alloca i32, align 4
  %8 = bitcast [256 x i32]* %3 to i8*
  call void @llvm.memset.p0i8.i64(i8* align 16 %8, i8 0, i64 1024, i1 false)
  %9 = bitcast [256 x i32]* %4 to i8*
  call void @llvm.memset.p0i8.i64(i8* align 16 %9, i8 0, i64 1024, i1 false)
  %10 = getelementptr inbounds [50 x i8], [50 x i8]* %1, i64 0, i64 0
  %11 = call i32 (i8*, ...) @__isoc99_scanf(i8* getelementptr inbounds ([3 x i8], [3 x i8]* @.str, i64 0, i64 0), i8* %10)
  %12 = getelementptr inbounds [50 x i8], [50 x i8]* %2, i64 0, i64 0
  %13 = call i32 (i8*, ...) @__isoc99_scanf(i8* getelementptr inbounds ([3 x i8], [3 x i8]* @.str, i64 0, i64 0), i8* %12)
  store i32 0, i32* %5, align 4
  br label %14

14:                                               ; preds = %35, %0
  %15 = load i32, i32* %5, align 4
  %16 = sext i32 %15 to i64
  %17 = getelementptr inbounds [50 x i8], [50 x i8]* %1, i64 0, i64 %16
  %18 = load i8, i8* %17, align 1
  %19 = sext i8 %18 to i32
  %20 = icmp ne i32 %19, 0
  br i1 %20, label %21, label %38

21:                                               ; preds = %14
  %22 = load i32, i32* %5, align 4
  %23 = sext i32 %22 to i64
  %24 = getelementptr inbounds [50 x i8], [50 x i8]* %1, i64 0, i64 %23
  %25 = load i8, i8* %24, align 1
  %26 = sext i8 %25 to i32
  store i32 %26, i32* %6, align 4
  %27 = load i32, i32* %6, align 4
  %28 = sext i32 %27 to i64
  %29 = getelementptr inbounds [256 x i32], [256 x i32]* %3, i64 0, i64 %28
  %30 = load i32, i32* %29, align 4
  %31 = add nsw i32 %30, 1
  %32 = load i32, i32* %6, align 4
  %33 = sext i32 %32 to i64
  %34 = getelementptr inbounds [256 x i32], [256 x i32]* %3, i64 0, i64 %33
  store i32 %31, i32* %34, align 4
  br label %35

35:                                               ; preds = %21
  %36 = load i32, i32* %5, align 4
  %37 = add nsw i32 %36, 1
  store i32 %37, i32* %5, align 4
  br label %14

38:                                               ; preds = %14
  store i32 0, i32* %5, align 4
  br label %39

39:                                               ; preds = %60, %38
  %40 = load i32, i32* %5, align 4
  %41 = sext i32 %40 to i64
  %42 = getelementptr inbounds [50 x i8], [50 x i8]* %2, i64 0, i64 %41
  %43 = load i8, i8* %42, align 1
  %44 = sext i8 %43 to i32
  %45 = icmp ne i32 %44, 0
  br i1 %45, label %46, label %63

46:                                               ; preds = %39
  %47 = load i32, i32* %5, align 4
  %48 = sext i32 %47 to i64
  %49 = getelementptr inbounds [50 x i8], [50 x i8]* %2, i64 0, i64 %48
  %50 = load i8, i8* %49, align 1
  %51 = sext i8 %50 to i32
  store i32 %51, i32* %7, align 4
  %52 = load i32, i32* %7, align 4
  %53 = sext i32 %52 to i64
  %54 = getelementptr inbounds [256 x i32], [256 x i32]* %4, i64 0, i64 %53
  %55 = load i32, i32* %54, align 4
  %56 = add nsw i32 %55, 1
  %57 = load i32, i32* %7, align 4
  %58 = sext i32 %57 to i64
  %59 = getelementptr inbounds [256 x i32], [256 x i32]* %4, i64 0, i64 %58
  store i32 %56, i32* %59, align 4
  br label %60

60:                                               ; preds = %46
  %61 = load i32, i32* %5, align 4
  %62 = add nsw i32 %61, 1
  store i32 %62, i32* %5, align 4
  br label %39

63:                                               ; preds = %39
  store i32 0, i32* %5, align 4
  br label %64

64:                                               ; preds = %79, %63
  %65 = load i32, i32* %5, align 4
  %66 = icmp slt i32 %65, 256
  br i1 %66, label %67, label %82

67:                                               ; preds = %64
  %68 = load i32, i32* %5, align 4
  %69 = sext i32 %68 to i64
  %70 = getelementptr inbounds [256 x i32], [256 x i32]* %3, i64 0, i64 %69
  %71 = load i32, i32* %70, align 4
  %72 = load i32, i32* %5, align 4
  %73 = sext i32 %72 to i64
  %74 = getelementptr inbounds [256 x i32], [256 x i32]* %4, i64 0, i64 %73
  %75 = load i32, i32* %74, align 4
  %76 = icmp ne i32 %71, %75
  br i1 %76, label %77, label %78

77:                                               ; preds = %67
  br label %82

78:                                               ; preds = %67
  br label %79

79:                                               ; preds = %78
  %80 = load i32, i32* %5, align 4
  %81 = add nsw i32 %80, 1
  store i32 %81, i32* %5, align 4
  br label %64

82:                                               ; preds = %77, %64
  %83 = load i32, i32* %5, align 4
  %84 = icmp slt i32 %83, 255
  br i1 %84, label %85, label %87

85:                                               ; preds = %82
  %86 = call i32 (i8*, ...) @printf(i8* getelementptr inbounds ([3 x i8], [3 x i8]* @.str.1, i64 0, i64 0))
  br label %89

87:                                               ; preds = %82
  %88 = call i32 (i8*, ...) @printf(i8* getelementptr inbounds ([4 x i8], [4 x i8]* @.str.2, i64 0, i64 0))
  br label %89

89:                                               ; preds = %87, %85
  ret void
}

; Function Attrs: argmemonly nounwind willreturn
declare void @llvm.memset.p0i8.i64(i8* nocapture writeonly, i8, i64, i1 immarg) #1

declare dso_local i32 @__isoc99_scanf(i8*, ...) #2

declare dso_local i32 @printf(i8*, ...) #2


!llvm.module.flags = !{!0}
!llvm.ident = !{!1}

!0 = !{i32 1, !"wchar_size", i32 4}
!1 = !{!"clang version 10.0.0-4ubuntu1 "}
